target datalayout = "e-m:e-p270:32:32-p271:32:32-p272:64:64-i64:64-i128:128-f80:128-n8:16:32:64-S128"
target triple = "x86_64-pc-linux-gnu"

%struct.opj_image = type { i32, i32, i32, i32, i32, i32, ptr, ptr, i32 }
%struct.opj_cp = type { i16, i32, i32, i32, i32, ptr, i32, i32, i32, ptr, ptr, i32, i32, ptr, ptr, ptr, i32, i32, i32, ptr, %union.anon, i32, i8 }
%union.anon = type { %struct.opj_encoding_param }
%struct.opj_encoding_param = type { i32, i32, ptr, i8, i32, i8 }
%struct.opj_tcp = type { i32, i32, i32, i32, i32, [100 x float], i32, [32 x %struct.opj_poc], i32, ptr, ptr, ptr, i32, i32, [100 x float], ptr, i32, i32, ptr, i32, ptr, ptr, ptr, ptr, i32, i32, ptr, i32, i32, i8 }
%struct.opj_poc = type { i32, i32, i32, i32, i32, i32, i32, i32, i32, i32, [5 x i8], i32, i32, i32, i32, i32, i32, i32, i32, i32, i32, i32, i32, i32, i32, i32, i32, i32, i32, i32, i32, i32, i32, i32, i32, i32 }

; Function Attrs: nounwind uwtable
define hidden i32 @opj_get_encoding_packet_count(ptr noundef %0, ptr noundef %1, i32 noundef %2) #0 {
  %4 = alloca ptr, align 8
  %5 = alloca ptr, align 8
  %6 = alloca i32, align 4
  %7 = alloca i32, align 4
  %8 = alloca i32, align 4
  %9 = alloca i32, align 4
  %10 = alloca i32, align 4
  %11 = alloca i32, align 4
  %12 = alloca i32, align 4
  %13 = alloca i32, align 4
  %14 = alloca i32, align 4
  store ptr %0, ptr %4, align 8, !tbaa !3
  store ptr %1, ptr %5, align 8, !tbaa !8
  store i32 %2, ptr %6, align 4, !tbaa !10
  call void @llvm.lifetime.start.p0(i64 4, ptr %7) #4
  call void @llvm.lifetime.start.p0(i64 4, ptr %8) #4
  call void @llvm.lifetime.start.p0(i64 4, ptr %9) #4
  call void @llvm.lifetime.start.p0(i64 4, ptr %10) #4
  call void @llvm.lifetime.start.p0(i64 4, ptr %11) #4
  call void @llvm.lifetime.start.p0(i64 4, ptr %12) #4
  call void @llvm.lifetime.start.p0(i64 4, ptr %13) #4
  call void @llvm.lifetime.start.p0(i64 4, ptr %14) #4
  %15 = load ptr, ptr %4, align 8, !tbaa !3
  %16 = load ptr, ptr %5, align 8, !tbaa !8
  %17 = load i32, ptr %6, align 4, !tbaa !10
  call void @opj_get_all_encoding_parameters(ptr noundef %15, ptr noundef %16, i32 noundef %17, ptr noundef %9, ptr noundef %10, ptr noundef %11, ptr noundef %12, ptr noundef %13, ptr noundef %14, ptr noundef %8, ptr noundef %7, ptr noundef null)
  %18 = load ptr, ptr %5, align 8, !tbaa !8
  %19 = getelementptr inbounds nuw %struct.opj_cp, ptr %18, i32 0, i32 19
  %20 = load ptr, ptr %19, align 8, !tbaa !29
  %21 = load i32, ptr %6, align 4, !tbaa !10
  %22 = zext i32 %21 to i64
  %23 = getelementptr inbounds nuw %struct.opj_tcp, ptr %20, i64 %22
  %24 = getelementptr inbounds nuw %struct.opj_tcp, ptr %23, i32 0, i32 2
  %25 = load i32, ptr %24, align 8, !tbaa !48
  %26 = load i32, ptr %8, align 4, !tbaa !10
  %27 = mul i32 %25, %26
  %28 = load ptr, ptr %4, align 8, !tbaa !3
  %29 = getelementptr inbounds nuw %struct.opj_image, ptr %28, i32 0, i32 4
  %30 = load i32, ptr %29, align 8, !tbaa !14
  %31 = mul i32 %27, %30
  %32 = load i32, ptr %7, align 4, !tbaa !10
  %33 = mul i32 %31, %32
  call void @llvm.lifetime.end.p0(i64 4, ptr %14) #4
  call void @llvm.lifetime.end.p0(i64 4, ptr %13) #4
  call void @llvm.lifetime.end.p0(i64 4, ptr %12) #4
  call void @llvm.lifetime.end.p0(i64 4, ptr %11) #4
  call void @llvm.lifetime.end.p0(i64 4, ptr %10) #4
  call void @llvm.lifetime.end.p0(i64 4, ptr %9) #4
  call void @llvm.lifetime.end.p0(i64 4, ptr %8) #4
  call void @llvm.lifetime.end.p0(i64 4, ptr %7) #4
  ret i32 %33
}