; Function Attrs: nofree norecurse nosync nounwind memory(readwrite, inaccessiblemem: none) uwtable
define hidden i32 @opj_get_encoding_packet_count(ptr noundef readonly captures(none) %0, ptr noundef readonly captures(none) %1, i32 noundef %2) local_unnamed_addr #3 {
  %4 = alloca i32, align 4
  %5 = alloca i32, align 4
  %6 = alloca i32, align 4
  %7 = alloca i32, align 4
  %8 = alloca i32, align 4
  %9 = alloca i32, align 4
  %10 = alloca i32, align 4
  %11 = alloca i32, align 4
  call void @llvm.lifetime.start.p0(i64 4, ptr nonnull %4) #5
  call void @llvm.lifetime.start.p0(i64 4, ptr nonnull %5) #5
  call void @llvm.lifetime.start.p0(i64 4, ptr nonnull %6) #5
  call void @llvm.lifetime.start.p0(i64 4, ptr nonnull %7) #5
  call void @llvm.lifetime.start.p0(i64 4, ptr nonnull %8) #5
  call void @llvm.lifetime.start.p0(i64 4, ptr nonnull %9) #5
  call void @llvm.lifetime.start.p0(i64 4, ptr nonnull %10) #5
  call void @llvm.lifetime.start.p0(i64 4, ptr nonnull %11) #5
  call fastcc void @opj_get_all_encoding_parameters(ptr noundef %0, ptr noundef %1, i32 noundef %2, ptr noundef %6, ptr noundef %7, ptr noundef %8, ptr noundef %9, ptr noundef %10, ptr noundef %11, ptr noundef %5, ptr noundef %4, ptr noundef null)
  %12 = getelementptr inbounds nuw i8, ptr %1, i64 112
  %13 = load ptr, ptr %12, align 8, !tbaa !11
  %14 = zext i32 %2 to i64
  %15 = getelementptr inbounds nuw %struct.opj_tcp, ptr %13, i64 %14, i32 2
  %16 = load i32, ptr %15, align 8, !tbaa !34
  %17 = load i32, ptr %5, align 4, !tbaa !27
  %18 = mul i32 %17, %16
  %19 = getelementptr inbounds nuw i8, ptr %0, i64 16
  %20 = load i32, ptr %19, align 8, !tbaa !3
  %21 = mul i32 %18, %20
  %22 = load i32, ptr %4, align 4, !tbaa !27
  %23 = mul i32 %21, %22
  call void @llvm.lifetime.end.p0(i64 4, ptr nonnull %11) #5
  call void @llvm.lifetime.end.p0(i64 4, ptr nonnull %10) #5
  call void @llvm.lifetime.end.p0(i64 4, ptr nonnull %9) #5
  call void @llvm.lifetime.end.p0(i64 4, ptr nonnull %8) #5
  call void @llvm.lifetime.end.p0(i64 4, ptr nonnull %7) #5
  call void @llvm.lifetime.end.p0(i64 4, ptr nonnull %6) #5
  call void @llvm.lifetime.end.p0(i64 4, ptr nonnull %5) #5
  call void @llvm.lifetime.end.p0(i64 4, ptr nonnull %4) #5
  ret i32 %23
}